target datalayout = "e-m:e-p270:32:32-p271:32:32-p272:64:64-i64:64-i128:128-f80:128-n8:16:32:64-S128"
target triple = "x86_64-pc-linux-gnu"

%struct.OnigSyntaxType = type { i32, i32, i32, i32, %struct.OnigMetaCharTableType }
%struct.OnigMetaCharTableType = type { i32, i32, i32, i32, i32, i32 }
%struct.re_pattern_buffer = type { ptr, ptr, ptr, i32, i32, ptr, ptr, i32, i32, i32, i32, i32, i32, i32, i32, i32, ptr, ptr, i32, ptr, i32, ptr, i32, i32, i32, i32, i32, i32, ptr, ptr, [256 x i8], i32, i32, i32, ptr }
%struct.st_table = type { ptr, i32, i32, ptr }

; Function Attrs: nounwind uwtable
define dso_local i32 @onig_number_of_names(ptr noundef %0) #0 {
  %2 = alloca i32, align 4
  %3 = alloca ptr, align 8
  %4 = alloca ptr, align 8
  %5 = alloca i32, align 4
  store ptr %0, ptr %3, align 8, !tbaa !33
  call void @llvm.lifetime.start.p0(i64 8, ptr %4) #8
  %6 = load ptr, ptr %3, align 8, !tbaa !33
  %7 = getelementptr inbounds nuw %struct.re_pattern_buffer, ptr %6, i32 0, i32 21
  %8 = load ptr, ptr %7, align 8, !tbaa !35
  store ptr %8, ptr %4, align 8, !tbaa !37
  %9 = load ptr, ptr %4, align 8, !tbaa !37
  %10 = icmp ne ptr %9, null
  br i1 %10, label %11, label %15

11:                                               ; preds = %1
  %12 = load ptr, ptr %4, align 8, !tbaa !37
  %13 = getelementptr inbounds nuw %struct.st_table, ptr %12, i32 0, i32 2
  %14 = load i32, ptr %13, align 4, !tbaa !56
  store i32 %14, ptr %2, align 4
  store i32 1, ptr %5, align 4
  br label %16

15:                                               ; preds = %1
  store i32 0, ptr %2, align 4
  store i32 1, ptr %5, align 4
  br label %16

16:                                               ; preds = %15, %11
  call void @llvm.lifetime.end.p0(i64 8, ptr %4) #8
  %17 = load i32, ptr %2, align 4
  ret i32 %17
}

; Function Attrs: nounwind uwtable
define dso_local i32 @onig_noname_group_capture_is_active(ptr noundef %0) #0 {
  %2 = alloca i32, align 4
  %3 = alloca ptr, align 8
  store ptr %0, ptr %3, align 8, !tbaa !33
  %4 = load ptr, ptr %3, align 8, !tbaa !33
  %5 = getelementptr inbounds nuw %struct.re_pattern_buffer, ptr %4, i32 0, i32 18
  %6 = load i32, ptr %5, align 8, !tbaa !69
  %7 = and i32 %6, 128
  %8 = icmp ne i32 %7, 0
  br i1 %8, label %9, label %10

9:                                                ; preds = %1
  store i32 0, ptr %2, align 4
  br label %30

10:                                               ; preds = %1
  %11 = load ptr, ptr %3, align 8, !tbaa !33
  %12 = call i32 @onig_number_of_names(ptr noundef %11)
  %13 = icmp sgt i32 %12, 0
  br i1 %13, label %14, label %29

14:                                               ; preds = %10
  %15 = load ptr, ptr %3, align 8, !tbaa !33
  %16 = getelementptr inbounds nuw %struct.re_pattern_buffer, ptr %15, i32 0, i32 19
  %17 = load ptr, ptr %16, align 8, !tbaa !70
  %18 = getelementptr inbounds nuw %struct.OnigSyntaxType, ptr %17, i32 0, i32 2
  %19 = load i32, ptr %18, align 4, !tbaa !71
  %20 = and i32 %19, 128
  %21 = icmp ne i32 %20, 0
  br i1 %21, label %22, label %29

22:                                               ; preds = %14
  %23 = load ptr, ptr %3, align 8, !tbaa !33
  %24 = getelementptr inbounds nuw %struct.re_pattern_buffer, ptr %23, i32 0, i32 18
  %25 = load i32, ptr %24, align 8, !tbaa !69
  %26 = and i32 %25, 256
  %27 = icmp ne i32 %26, 0
  br i1 %27, label %29, label %28

28:                                               ; preds = %22
  store i32 0, ptr %2, align 4
  br label %30

29:                                               ; preds = %22, %14, %10
  store i32 1, ptr %2, align 4
  br label %30

30:                                               ; preds = %29, %28, %9
  %31 = load i32, ptr %2, align 4
  ret i32 %31
}