; Function Attrs: mustprogress nofree norecurse nosync nounwind willreturn memory(read, inaccessiblemem: none) uwtable
define dso_local range(i32 0, 2) i32 @onig_noname_group_capture_is_active(ptr noundef readonly captures(none) %0) local_unnamed_addr #13 {
  %2 = getelementptr inbounds nuw i8, ptr %0, i64 104
  %3 = load i32, ptr %2, align 8, !tbaa !56
  %4 = and i32 %3, 128
  %.not = icmp eq i32 %4, 0
  br i1 %.not, label %5, label %18

5:                                                ; preds = %1
  %6 = getelementptr inbounds nuw i8, ptr %0, i64 128
  %7 = load ptr, ptr %6, align 8, !tbaa !27
  %.not.i = icmp eq ptr %7, null
  br i1 %.not.i, label %onig_number_of_names.exit.thread, label %onig_number_of_names.exit

onig_number_of_names.exit:                        ; preds = %5
  %8 = getelementptr inbounds nuw i8, ptr %7, i64 12
  %9 = load i32, ptr %8, align 4, !tbaa !47
  %10 = icmp sgt i32 %9, 0
  br i1 %10, label %11, label %onig_number_of_names.exit.thread

11:                                               ; preds = %onig_number_of_names.exit
  %12 = getelementptr inbounds nuw i8, ptr %0, i64 112
  %13 = load ptr, ptr %12, align 8, !tbaa !57
  %14 = getelementptr inbounds nuw i8, ptr %13, i64 8
  %15 = load i32, ptr %14, align 4, !tbaa !58
  %16 = and i32 %15, 128
  %.not4 = icmp ne i32 %16, 0
  %17 = and i32 %3, 256
  %.not5 = icmp eq i32 %17, 0
  %or.cond = and i1 %.not5, %.not4
  br i1 %or.cond, label %18, label %onig_number_of_names.exit.thread

onig_number_of_names.exit.thread:                 ; preds = %5, %11, %onig_number_of_names.exit
  br label %18

18:                                               ; preds = %11, %1, %onig_number_of_names.exit.thread
  %.0 = phi i32 [ 1, %onig_number_of_names.exit.thread ], [ 0, %1 ], [ 0, %11 ]
  ret i32 %.0
}